target datalayout = "e-m:e-p270:32:32-p271:32:32-p272:64:64-i64:64-i128:128-f80:128-n8:16:32:64-S128"
target triple = "x86_64-pc-linux-gnu"

@max_registered_buffers = internal global i32 0, align 4
@registered_buffers = internal global ptr null, align 8
@max_rdatas = internal global i32 0, align 4
@rdatas = internal global ptr null, align 8
@xloginsert_cxt = internal global ptr null, align 8
@TopMemoryContext = external global ptr, align 8
@.str.11 = private unnamed_addr constant [24 x i8] c"WAL record construction\00", align 1
@hdr_scratch = internal global ptr null, align 8

; Function Attrs: nounwind uwtable
define dso_local void @InitXLogInsert() #0 {
  %1 = alloca i32, align 4
  %2 = load ptr, ptr @xloginsert_cxt, align 8
  %3 = icmp eq ptr %2, null
  br i1 %3, label %4, label %9

4:                                                ; preds = %0
  br label %5

5:                                                ; preds = %4
  br label %6

6:                                                ; preds = %5
  store i32 1, ptr %1, align 4
  %7 = load ptr, ptr @TopMemoryContext, align 8
  %8 = call ptr @AllocSetContextCreateInternal(ptr noundef %7, ptr noundef @.str.11, i64 noundef 0, i64 noundef 8192, i64 noundef 8388608)
  store ptr %8, ptr @xloginsert_cxt, align 8
  br label %9

9:                                                ; preds = %6, %0
  %10 = load ptr, ptr @registered_buffers, align 8
  %11 = icmp eq ptr %10, null
  br i1 %11, label %12, label %15

12:                                               ; preds = %9
  %13 = load ptr, ptr @xloginsert_cxt, align 8
  %14 = call ptr @MemoryContextAllocZero(ptr noundef %13, i64 noundef 41520)
  store ptr %14, ptr @registered_buffers, align 8
  store i32 5, ptr @max_registered_buffers, align 4
  br label %15

15:                                               ; preds = %12, %9
  %16 = load ptr, ptr @rdatas, align 8
  %17 = icmp eq ptr %16, null
  br i1 %17, label %18, label %21

18:                                               ; preds = %15
  %19 = load ptr, ptr @xloginsert_cxt, align 8
  %20 = call ptr @MemoryContextAlloc(ptr noundef %19, i64 noundef 480)
  store ptr %20, ptr @rdatas, align 8
  store i32 20, ptr @max_rdatas, align 4
  br label %21

21:                                               ; preds = %18, %15
  %22 = load ptr, ptr @hdr_scratch, align 8
  %23 = icmp eq ptr %22, null
  br i1 %23, label %24, label %27

24:                                               ; preds = %21
  %25 = load ptr, ptr @xloginsert_cxt, align 8
  %26 = call ptr @MemoryContextAllocZero(ptr noundef %25, i64 noundef 928)
  store ptr %26, ptr @hdr_scratch, align 8
  br label %27

27:                                               ; preds = %24, %21
  ret void
}