; Function Attrs: nounwind uwtable
define dso_local void @InitXLogInsert() local_unnamed_addr #0 {
  %1 = load ptr, ptr @xloginsert_cxt, align 8
  %2 = icmp eq ptr %1, null
  br i1 %2, label %3, label %6

3:                                                ; preds = %0
  %4 = load ptr, ptr @TopMemoryContext, align 8
  %5 = tail call ptr @AllocSetContextCreateInternal(ptr noundef %4, ptr noundef nonnull @.str.11, i64 noundef 0, i64 noundef 8192, i64 noundef 8388608) #10
  store ptr %5, ptr @xloginsert_cxt, align 8
  br label %6

6:                                                ; preds = %3, %0
  %7 = phi ptr [ %5, %3 ], [ %1, %0 ]
  %8 = load ptr, ptr @registered_buffers, align 8
  %9 = icmp eq ptr %8, null
  br i1 %9, label %10, label %12

10:                                               ; preds = %6
  %11 = tail call ptr @MemoryContextAllocZero(ptr noundef %7, i64 noundef 41520) #10
  store ptr %11, ptr @registered_buffers, align 8
  store i32 5, ptr @max_registered_buffers, align 4
  br label %12

12:                                               ; preds = %10, %6
  %13 = load ptr, ptr @rdatas, align 8
  %14 = icmp eq ptr %13, null
  br i1 %14, label %15, label %18

15:                                               ; preds = %12
  %16 = load ptr, ptr @xloginsert_cxt, align 8
  %17 = tail call ptr @MemoryContextAlloc(ptr noundef %16, i64 noundef 480) #10
  store ptr %17, ptr @rdatas, align 8
  store i32 20, ptr @max_rdatas, align 4
  br label %18

18:                                               ; preds = %15, %12
  %19 = load ptr, ptr @hdr_scratch, align 8
  %20 = icmp eq ptr %19, null
  br i1 %20, label %21, label %24

21:                                               ; preds = %18
  %22 = load ptr, ptr @xloginsert_cxt, align 8
  %23 = tail call ptr @MemoryContextAllocZero(ptr noundef %22, i64 noundef 928) #10
  store ptr %23, ptr @hdr_scratch, align 8
  br label %24

24:                                               ; preds = %21, %18
  ret void
}